target datalayout = "e-m:e-p270:32:32-p271:32:32-p272:64:64-i64:64-i128:128-f80:128-n8:16:32:64-S128"
target triple = "x86_64-pc-linux-gnu"

%struct.uv_udp_s = type { ptr, ptr, i32, ptr, [2 x ptr], %union.anon, ptr, i32, i64, i64, ptr, ptr, %struct.uv__io_s, [2 x ptr], [2 x ptr] }
%union.anon = type { [4 x ptr] }
%struct.uv__io_s = type { ptr, [2 x ptr], [2 x ptr], i32, i32, i32 }

; Function Attrs: nounwind uwtable
define internal i32 @uv__set_reuse(i32 noundef %0) #0 {
  %2 = alloca i32, align 4
  %3 = alloca i32, align 4
  %4 = alloca i32, align 4
  store i32 %0, ptr %3, align 4
  store i32 1, ptr %4, align 4
  %5 = load i32, ptr %3, align 4
  %6 = call i32 @setsockopt(i32 noundef %5, i32 noundef 1, i32 noundef 2, ptr noundef %4, i32 noundef 4) #7
  %7 = icmp ne i32 %6, 0
  br i1 %7, label %8, label %12

8:                                                ; preds = %1
  %9 = call ptr @__errno_location() #8
  %10 = load i32, ptr %9, align 4
  %11 = sub nsw i32 0, %10
  store i32 %11, ptr %2, align 4
  br label %13

12:                                               ; preds = %1
  store i32 0, ptr %2, align 4
  br label %13

13:                                               ; preds = %12, %8
  %14 = load i32, ptr %2, align 4
  ret i32 %14
}

; Function Attrs: nounwind uwtable
define dso_local i32 @uv_udp_open(ptr noundef %0, i32 noundef %1) #0 {
  %3 = alloca i32, align 4
  %4 = alloca ptr, align 8
  %5 = alloca i32, align 4
  %6 = alloca i32, align 4
  store ptr %0, ptr %4, align 8
  store i32 %1, ptr %5, align 4
  %7 = load ptr, ptr %4, align 8
  %8 = getelementptr inbounds %struct.uv_udp_s, ptr %7, i32 0, i32 12
  %9 = getelementptr inbounds %struct.uv__io_s, ptr %8, i32 0, i32 5
  %10 = load i32, ptr %9, align 8
  %11 = icmp ne i32 %10, -1
  br i1 %11, label %12, label %13

12:                                               ; preds = %2
  store i32 -16, ptr %3, align 4
  br label %49

13:                                               ; preds = %2
  %14 = load ptr, ptr %4, align 8
  %15 = getelementptr inbounds %struct.uv_udp_s, ptr %14, i32 0, i32 1
  %16 = load ptr, ptr %15, align 8
  %17 = load i32, ptr %5, align 4
  %18 = call i32 @uv__fd_exists(ptr noundef %16, i32 noundef %17)
  %19 = icmp ne i32 %18, 0
  br i1 %19, label %20, label %21

20:                                               ; preds = %13
  store i32 -17, ptr %3, align 4
  br label %49

21:                                               ; preds = %13
  %22 = load i32, ptr %5, align 4
  %23 = call i32 @uv__nonblock_ioctl(i32 noundef %22, i32 noundef 1)
  store i32 %23, ptr %6, align 4
  %24 = load i32, ptr %6, align 4
  %25 = icmp ne i32 %24, 0
  br i1 %25, label %26, label %28

26:                                               ; preds = %21
  %27 = load i32, ptr %6, align 4
  store i32 %27, ptr %3, align 4
  br label %49

28:                                               ; preds = %21
  %29 = load i32, ptr %5, align 4
  %30 = call i32 @uv__set_reuse(i32 noundef %29)
  store i32 %30, ptr %6, align 4
  %31 = load i32, ptr %6, align 4
  %32 = icmp ne i32 %31, 0
  br i1 %32, label %33, label %35

33:                                               ; preds = %28
  %34 = load i32, ptr %6, align 4
  store i32 %34, ptr %3, align 4
  br label %49

35:                                               ; preds = %28
  %36 = load i32, ptr %5, align 4
  %37 = load ptr, ptr %4, align 8
  %38 = getelementptr inbounds %struct.uv_udp_s, ptr %37, i32 0, i32 12
  %39 = getelementptr inbounds %struct.uv__io_s, ptr %38, i32 0, i32 5
  store i32 %36, ptr %39, align 8
  %40 = load ptr, ptr %4, align 8
  %41 = call i32 @uv__udp_is_connected(ptr noundef %40)
  %42 = icmp ne i32 %41, 0
  br i1 %42, label %43, label %48

43:                                               ; preds = %35
  %44 = load ptr, ptr %4, align 8
  %45 = getelementptr inbounds %struct.uv_udp_s, ptr %44, i32 0, i32 7
  %46 = load i32, ptr %45, align 8
  %47 = or i32 %46, 33554432
  store i32 %47, ptr %45, align 8
  br label %48

48:                                               ; preds = %43, %35
  store i32 0, ptr %3, align 4
  br label %49

49:                                               ; preds = %48, %33, %26, %20, %12
  %50 = load i32, ptr %3, align 4
  ret i32 %50
}